; Function Attrs: nounwind sspstrong uwtable
define dso_local noundef zeroext i1 @visit_type_BlockdevOptionsBlklogwrites_members(ptr noundef %v, ptr noundef %obj, ptr noundef %errp) local_unnamed_addr #0 {
entry:
  %call = tail call zeroext i1 @visit_type_BlockdevRef(ptr noundef %v, ptr noundef nonnull @.str.63, ptr noundef %obj, ptr noundef %errp)
  br i1 %call, label %if.end, label %return

if.end:                                           ; preds = %entry
  %log = getelementptr inbounds nuw i8, ptr %obj, i64 8
  %call1 = tail call zeroext i1 @visit_type_BlockdevRef(ptr noundef %v, ptr noundef nonnull @.str.331, ptr noundef nonnull %log, ptr noundef %errp)
  br i1 %call1, label %if.end3, label %return

if.end3:                                          ; preds = %if.end
  %has_log_sector_size = getelementptr inbounds nuw i8, ptr %obj, i64 16
  %call4 = tail call zeroext i1 @visit_optional(ptr noundef %v, ptr noundef nonnull @.str.332, ptr noundef nonnull %has_log_sector_size) #5
  br i1 %call4, label %if.then5, label %if.end9

if.then5:                                         ; preds = %if.end3
  %log_sector_size = getelementptr inbounds nuw i8, ptr %obj, i64 20
  %call6 = tail call zeroext i1 @visit_type_uint32(ptr noundef %v, ptr noundef nonnull @.str.332, ptr noundef nonnull %log_sector_size, ptr noundef %errp) #5
  br i1 %call6, label %if.end9, label %return

if.end9:                                          ; preds = %if.then5, %if.end3
  %has_log_append = getelementptr inbounds nuw i8, ptr %obj, i64 24
  %call10 = tail call zeroext i1 @visit_optional(ptr noundef %v, ptr noundef nonnull @.str.333, ptr noundef nonnull %has_log_append) #5
  br i1 %call10, label %if.then11, label %if.end15

if.then11:                                        ; preds = %if.end9
  %log_append = getelementptr inbounds nuw i8, ptr %obj, i64 25
  %call12 = tail call zeroext i1 @visit_type_bool(ptr noundef %v, ptr noundef nonnull @.str.333, ptr noundef nonnull %log_append, ptr noundef %errp) #5
  br i1 %call12, label %if.end15, label %return

if.end15:                                         ; preds = %if.then11, %if.end9
  %has_log_super_update_interval = getelementptr inbounds nuw i8, ptr %obj, i64 26
  %call16 = tail call zeroext i1 @visit_optional(ptr noundef %v, ptr noundef nonnull @.str.334, ptr noundef nonnull %has_log_super_update_interval) #5
  br i1 %call16, label %if.then17, label %if.end21

if.then17:                                        ; preds = %if.end15
  %log_super_update_interval = getelementptr inbounds nuw i8, ptr %obj, i64 32
  %call18 = tail call zeroext i1 @visit_type_uint64(ptr noundef %v, ptr noundef nonnull @.str.334, ptr noundef nonnull %log_super_update_interval, ptr noundef %errp) #5
  br i1 %call18, label %if.end21, label %return

if.end21:                                         ; preds = %if.then17, %if.end15
  br label %return

return:                                           ; preds = %if.then17, %if.then11, %if.then5, %if.end, %entry, %if.end21
  %retval.0 = phi i1 [ true, %if.end21 ], [ false, %entry ], [ false, %if.end ], [ false, %if.then5 ], [ false, %if.then11 ], [ false, %if.then17 ]
  ret i1 %retval.0
}